target datalayout = "e-m:e-p270:32:32-p271:32:32-p272:64:64-i64:64-i128:128-f80:128-n8:16:32:64-S128"
target triple = "x86_64-pc-linux-gnu"

%struct._packet_info = type { ptr, ptr, i32, i32, %struct.nstime_t, %struct.nstime_t, %struct.nstime_t, i8, ptr, ptr, ptr, ptr, %struct._address, %struct._address, %struct._address, %struct._address, %struct._address, %struct._address, i32, ptr, i8, [3 x i8], %struct.anon, i32, i32, i32, i32, ptr, i8, ptr, ptr, i16, i16, i32, i32, i16, i32, i32, ptr, ptr, ptr, i8, i8, i16, i16, i16, i32, i16, i16, ptr, ptr, ptr, ptr, ptr, i32, i32 }
%struct.nstime_t = type { i64, i32 }
%struct._address = type { i32, i32, ptr, ptr }
%struct.anon = type { i8, [3 x i8] }
%struct._diam_ctx_t = type { ptr, ptr, ptr }
%struct._proto_node = type { ptr, ptr, ptr, ptr, ptr, ptr, ptr }
%struct._diam_avp_t = type { i32, ptr, ptr, i32, i32, ptr }

@.str.70 = private unnamed_addr constant [3 x i8] c": \00", align 1

; Function Attrs: null_pointer_is_valid sspstrong uwtable
define internal ptr @utf8_avp(ptr noundef %0, ptr noundef %1, ptr noundef %2, ptr noundef %3) #0 {
  %5 = alloca ptr, align 8
  %6 = alloca ptr, align 8
  %7 = alloca ptr, align 8
  %8 = alloca ptr, align 8
  %9 = alloca ptr, align 8
  %10 = alloca ptr, align 8
  store ptr %0, ptr %5, align 8
  store ptr %1, ptr %6, align 8
  store ptr %2, ptr %7, align 8
  store ptr %3, ptr %8, align 8
  call void @llvm.lifetime.start.p0(i64 8, ptr %9) #14
  store ptr null, ptr %9, align 8
  %11 = load ptr, ptr %5, align 8
  %12 = getelementptr inbounds nuw %struct._diam_ctx_t, ptr %11, i32 0, i32 0
  %13 = load ptr, ptr %12, align 8
  %14 = icmp ne ptr %13, null
  br i1 %14, label %15, label %39

15:                                               ; preds = %4
  call void @llvm.lifetime.start.p0(i64 8, ptr %10) #14
  %16 = load ptr, ptr %5, align 8
  %17 = getelementptr inbounds nuw %struct._diam_ctx_t, ptr %16, i32 0, i32 0
  %18 = load ptr, ptr %17, align 8
  %19 = load ptr, ptr %6, align 8
  %20 = getelementptr inbounds nuw %struct._diam_avp_t, ptr %19, i32 0, i32 4
  %21 = load i32, ptr %20, align 4
  %22 = load ptr, ptr %7, align 8
  %23 = load ptr, ptr %7, align 8
  %24 = call i32 @tvb_reported_length(ptr noundef %23)
  %25 = call ptr @proto_tree_add_item(ptr noundef %18, i32 noundef %21, ptr noundef %22, i32 noundef 0, i32 noundef %24, i32 noundef 2)
  store ptr %25, ptr %10, align 8
  %26 = load ptr, ptr %5, align 8
  %27 = getelementptr inbounds nuw %struct._diam_ctx_t, ptr %26, i32 0, i32 1
  %28 = load ptr, ptr %27, align 8
  %29 = getelementptr inbounds nuw %struct._packet_info, ptr %28, i32 0, i32 51
  %30 = load ptr, ptr %29, align 8
  %31 = call noalias ptr @wmem_alloc(ptr noundef %30, i64 noundef 241) #15
  store ptr %31, ptr %9, align 8
  %32 = load ptr, ptr %10, align 8
  %33 = getelementptr inbounds nuw %struct._proto_node, ptr %32, i32 0, i32 5
  %34 = load ptr, ptr %33, align 8
  %35 = load ptr, ptr %9, align 8
  call void @proto_item_fill_label(ptr noundef %34, ptr noundef %35, ptr noundef null)
  %36 = load ptr, ptr %9, align 8
  %37 = call ptr @strstr(ptr noundef %36, ptr noundef @.str.70) #17
  %38 = getelementptr i8, ptr %37, i64 2
  store ptr %38, ptr %9, align 8
  call void @llvm.lifetime.end.p0(i64 8, ptr %10) #14
  br label %39

39:                                               ; preds = %15, %4
  %40 = load ptr, ptr %9, align 8
  call void @llvm.lifetime.end.p0(i64 8, ptr %9) #14
  ret ptr %40
}