; Function Attrs: null_pointer_is_valid sspstrong uwtable
define internal ptr @utf8_avp(ptr noundef readonly captures(none) %0, ptr noundef readonly captures(none) %1, ptr noundef %2, ptr readnone captures(none) %3) #0 {
  %5 = load ptr, ptr %0, align 8
  %.not = icmp eq ptr %5, null
  br i1 %.not, label %20, label %6

6:                                                ; preds = %4
  %7 = getelementptr inbounds nuw i8, ptr %1, i64 28
  %8 = load i32, ptr %7, align 4
  %9 = tail call i32 @tvb_reported_length(ptr noundef %2)
  %10 = tail call ptr @proto_tree_add_item(ptr noundef nonnull %5, i32 noundef %8, ptr noundef %2, i32 noundef 0, i32 noundef %9, i32 noundef 2)
  %11 = getelementptr inbounds nuw i8, ptr %0, i64 8
  %12 = load ptr, ptr %11, align 8
  %13 = getelementptr inbounds nuw i8, ptr %12, i64 408
  %14 = load ptr, ptr %13, align 8
  %15 = tail call noalias dereferenceable_or_null(241) ptr @wmem_alloc(ptr noundef %14, i64 noundef 241) #15
  %16 = getelementptr inbounds nuw i8, ptr %10, i64 40
  %17 = load ptr, ptr %16, align 8
  tail call void @proto_item_fill_label(ptr noundef %17, ptr noundef %15, ptr noundef null)
  %18 = tail call ptr @strstr(ptr noundef %15, ptr noundef nonnull dereferenceable(1) @.str.70) #18
  %19 = getelementptr i8, ptr %18, i64 2
  br label %20

20:                                               ; preds = %6, %4
  %.0 = phi ptr [ %19, %6 ], [ null, %4 ]
  ret ptr %.0
}